; Function Attrs: nounwind sspstrong uwtable
define dso_local void @add_stats_entry(ptr noundef captures(none) %stats_results, i32 noundef %provider, ptr noundef %qom_path, ptr noundef %stats_list) local_unnamed_addr #0 {
entry:
  %call = tail call noalias dereferenceable_or_null(24) ptr @g_malloc0_n(i64 noundef 1, i64 noundef 24) #6
  store i32 %provider, ptr %call, align 8
  %call3 = tail call noalias ptr @g_strdup(ptr noundef %qom_path) #8
  %qom_path4 = getelementptr inbounds nuw i8, ptr %call, i64 8
  store ptr %call3, ptr %qom_path4, align 8
  %stats = getelementptr inbounds nuw i8, ptr %call, i64 16
  store ptr %stats_list, ptr %stats, align 8
  %call5 = tail call noalias dereferenceable_or_null(16) ptr @g_malloc(i64 noundef 16) #9
  %value = getelementptr inbounds nuw i8, ptr %call5, i64 8
  store ptr %call, ptr %value, align 8
  %0 = load ptr, ptr %stats_results, align 8
  store ptr %0, ptr %call5, align 8
  store ptr %call5, ptr %stats_results, align 8
  ret void
}